; Function Attrs: mustprogress uwtable
define noundef zeroext i1 @_ZNK5arrow2io22CompressedOutputStream6closedEv(ptr nocapture noundef nonnull readonly align 8 dereferenceable(16) %this) unnamed_addr #0 align 2 personality ptr @__gxx_personality_v0 {
entry:
  %impl_ = getelementptr inbounds i8, ptr %this, i64 8
  %0 = load ptr, ptr %impl_, align 8
  %lock_.i = getelementptr inbounds i8, ptr %0, i64 80
  %call1.i.i.i.i = tail call noundef i32 @pthread_mutex_lock(ptr noundef nonnull %lock_.i) #21
  %tobool.not.i.i.i = icmp eq i32 %call1.i.i.i.i, 0
  br i1 %tobool.not.i.i.i, label %_ZN5arrow2io22CompressedOutputStream4Impl6closedEv.exit, label %if.then.i.i.i

if.then.i.i.i:                                    ; preds = %entry
  tail call void @_ZSt20__throw_system_errori(i32 noundef %call1.i.i.i.i) #24
  unreachable

_ZN5arrow2io22CompressedOutputStream4Impl6closedEv.exit: ; preds = %entry
  %is_open_.i = getelementptr inbounds i8, ptr %0, i64 24
  %1 = load i8, ptr %is_open_.i, align 8
  %2 = and i8 %1, 1
  %tobool.not.i = icmp eq i8 %2, 0
  %call1.i.i.i1.i = tail call noundef i32 @pthread_mutex_unlock(ptr noundef nonnull %lock_.i) #21
  ret i1 %tobool.not.i
}